; Function Attrs: mustprogress uwtable
define dso_local noundef i32 @_ZN3gmx9gmx_mdrunEiPPc(i32 noundef %0, ptr noundef %1) local_unnamed_addr #0 personality ptr @__gxx_personality_v0 {
  %3 = alloca %"class.gmx::PhysicalNodeCommunicator", align 8
  %4 = alloca %"class.std::unique_ptr.2", align 8
  %5 = tail call noundef i32 @_Z24gmx_physicalnode_id_hashv()
  call void @_ZN3gmx24PhysicalNodeCommunicatorC1EP10tmpi_comm_i(ptr noundef nonnull align 8 dereferenceable(24) %3, ptr noundef null, i32 noundef %5)
  invoke void @_ZN3gmx19gmx_detect_hardwareERKNS_24PhysicalNodeCommunicatorEP10tmpi_comm_(ptr dead_on_unwind nonnull writable sret(%"class.std::unique_ptr.2") align 8 %4, ptr noundef nonnull align 8 dereferenceable(24) %3, ptr noundef null)
          to label %6 unwind label %17

6:                                                ; preds = %2
  %7 = load ptr, ptr %4, align 8
  %8 = invoke noundef i32 @_ZN3gmx9gmx_mdrunEP10tmpi_comm_RK13gmx_hw_info_tiPPc(ptr noundef null, ptr noundef nonnull align 8 dereferenceable(136) %7, i32 noundef %0, ptr noundef %1)
          to label %9 unwind label %19

9:                                                ; preds = %6
  %10 = load ptr, ptr %4, align 8
  %.not.i = icmp eq ptr %10, null
  br i1 %.not.i, label %_ZNSt10unique_ptrI13gmx_hw_info_tSt14default_deleteIS0_EED2Ev.exit, label %_ZNKSt14default_deleteI13gmx_hw_info_tEclEPS0_.exit.i

_ZNKSt14default_deleteI13gmx_hw_info_tEclEPS0_.exit.i: ; preds = %9
  call void @_ZN13gmx_hw_info_tD1Ev(ptr noundef nonnull align 8 dereferenceable(136) %10) #11
  call void @_ZdlPv(ptr noundef nonnull %10) #12
  br label %_ZNSt10unique_ptrI13gmx_hw_info_tSt14default_deleteIS0_EED2Ev.exit

_ZNSt10unique_ptrI13gmx_hw_info_tSt14default_deleteIS0_EED2Ev.exit: ; preds = %9, %_ZNKSt14default_deleteI13gmx_hw_info_tEclEPS0_.exit.i
  store ptr null, ptr %4, align 8
  %11 = getelementptr inbounds i8, ptr %3, i64 16
  %12 = load ptr, ptr %11, align 8
  %.not.i.i = icmp eq ptr %12, null
  br i1 %.not.i.i, label %_ZN3gmx24PhysicalNodeCommunicatorD2Ev.exit, label %13

13:                                               ; preds = %_ZNSt10unique_ptrI13gmx_hw_info_tSt14default_deleteIS0_EED2Ev.exit
  invoke void @_ZN3gmx21MPI_Comm_free_wrapperEPP10tmpi_comm_(ptr noundef nonnull %12)
          to label %_ZN3gmx24PhysicalNodeCommunicatorD2Ev.exit unwind label %14

14:                                               ; preds = %13
  %15 = landingpad { ptr, i32 }
          catch ptr null
  %16 = extractvalue { ptr, i32 } %15, 0
  call void @__clang_call_terminate(ptr %16) #13
  unreachable

_ZN3gmx24PhysicalNodeCommunicatorD2Ev.exit:       ; preds = %_ZNSt10unique_ptrI13gmx_hw_info_tSt14default_deleteIS0_EED2Ev.exit, %13
  ret i32 %8

17:                                               ; preds = %2
  %18 = landingpad { ptr, i32 }
          cleanup
  br label %21

19:                                               ; preds = %6
  %20 = landingpad { ptr, i32 }
          cleanup
  call void @_ZNSt10unique_ptrI13gmx_hw_info_tSt14default_deleteIS0_EED2Ev(ptr noundef nonnull align 8 dereferenceable(8) %4) #11
  br label %21

21:                                               ; preds = %19, %17
  %.pn = phi { ptr, i32 } [ %20, %19 ], [ %18, %17 ]
  call void @_ZN3gmx24PhysicalNodeCommunicatorD2Ev(ptr noundef nonnull align 8 dereferenceable(24) %3) #11
  resume { ptr, i32 } %.pn
}